target datalayout = "e-m:e-p270:32:32-p271:32:32-p272:64:64-i64:64-i128:128-f80:128-n8:16:32:64-S128"
target triple = "x86_64-pc-linux-gnu"

; Function Attrs: nounwind uwtable
define internal i32 @clamp(i32 noundef %0, i32 noundef %1, i32 noundef %2) #0 {
  %4 = alloca i32, align 4
  %5 = alloca i32, align 4
  %6 = alloca i32, align 4
  store i32 %0, ptr %4, align 4
  store i32 %1, ptr %5, align 4
  store i32 %2, ptr %6, align 4
  %7 = load i32, ptr %4, align 4
  %8 = load i32, ptr %5, align 4
  %9 = icmp slt i32 %7, %8
  br i1 %9, label %10, label %12

10:                                               ; preds = %3
  %11 = load i32, ptr %5, align 4
  br label %22

12:                                               ; preds = %3
  %13 = load i32, ptr %4, align 4
  %14 = load i32, ptr %6, align 4
  %15 = icmp sgt i32 %13, %14
  br i1 %15, label %16, label %18

16:                                               ; preds = %12
  %17 = load i32, ptr %6, align 4
  br label %20

18:                                               ; preds = %12
  %19 = load i32, ptr %4, align 4
  br label %20

20:                                               ; preds = %18, %16
  %21 = phi i32 [ %17, %16 ], [ %19, %18 ]
  br label %22

22:                                               ; preds = %20, %10
  %23 = phi i32 [ %11, %10 ], [ %21, %20 ]
  ret i32 %23
}

; Function Attrs: nounwind uwtable
define internal zeroext i16 @clip_pixel_highbd(i32 noundef %0, i32 noundef %1) #0 {
  %3 = alloca i16, align 2
  %4 = alloca i32, align 4
  %5 = alloca i32, align 4
  store i32 %0, ptr %4, align 4
  store i32 %1, ptr %5, align 4
  %6 = load i32, ptr %5, align 4
  switch i32 %6, label %8 [
    i32 8, label %7
    i32 10, label %12
    i32 12, label %16
  ]

7:                                                ; preds = %2
  br label %8

8:                                                ; preds = %7, %2
  %9 = load i32, ptr %4, align 4
  %10 = call i32 @clamp(i32 noundef %9, i32 noundef 0, i32 noundef 255)
  %11 = trunc i32 %10 to i16
  store i16 %11, ptr %3, align 2
  br label %20

12:                                               ; preds = %2
  %13 = load i32, ptr %4, align 4
  %14 = call i32 @clamp(i32 noundef %13, i32 noundef 0, i32 noundef 1023)
  %15 = trunc i32 %14 to i16
  store i16 %15, ptr %3, align 2
  br label %20

16:                                               ; preds = %2
  %17 = load i32, ptr %4, align 4
  %18 = call i32 @clamp(i32 noundef %17, i32 noundef 0, i32 noundef 4095)
  %19 = trunc i32 %18 to i16
  store i16 %19, ptr %3, align 2
  br label %20

20:                                               ; preds = %16, %12, %8
  %21 = load i16, ptr %3, align 2
  ret i16 %21
}

; Function Attrs: nounwind uwtable
define hidden void @av1_upsample_intra_edge_high_c(ptr noundef %0, i32 noundef %1, i32 noundef %2) #0 {
  %4 = alloca ptr, align 8
  %5 = alloca i32, align 4
  %6 = alloca i32, align 4
  %7 = alloca [19 x i16], align 16
  %8 = alloca i32, align 4
  %9 = alloca i32, align 4
  %10 = alloca i32, align 4
  store ptr %0, ptr %4, align 8
  store i32 %1, ptr %5, align 4
  store i32 %2, ptr %6, align 4
  %11 = load ptr, ptr %4, align 8
  %12 = getelementptr inbounds i16, ptr %11, i64 -1
  %13 = load i16, ptr %12, align 2
  %14 = getelementptr inbounds [19 x i16], ptr %7, i64 0, i64 0
  store i16 %13, ptr %14, align 16
  %15 = load ptr, ptr %4, align 8
  %16 = getelementptr inbounds i16, ptr %15, i64 -1
  %17 = load i16, ptr %16, align 2
  %18 = getelementptr inbounds [19 x i16], ptr %7, i64 0, i64 1
  store i16 %17, ptr %18, align 2
  store i32 0, ptr %8, align 4
  br label %19

19:                                               ; preds = %33, %3
  %20 = load i32, ptr %8, align 4
  %21 = load i32, ptr %5, align 4
  %22 = icmp slt i32 %20, %21
  br i1 %22, label %23, label %36

23:                                               ; preds = %19
  %24 = load ptr, ptr %4, align 8
  %25 = load i32, ptr %8, align 4
  %26 = sext i32 %25 to i64
  %27 = getelementptr inbounds i16, ptr %24, i64 %26
  %28 = load i16, ptr %27, align 2
  %29 = load i32, ptr %8, align 4
  %30 = add nsw i32 %29, 2
  %31 = sext i32 %30 to i64
  %32 = getelementptr inbounds [19 x i16], ptr %7, i64 0, i64 %31
  store i16 %28, ptr %32, align 2
  br label %33

33:                                               ; preds = %23
  %34 = load i32, ptr %8, align 4
  %35 = add nsw i32 %34, 1
  store i32 %35, ptr %8, align 4
  br label %19, !llvm.loop !32

36:                                               ; preds = %19
  %37 = load ptr, ptr %4, align 8
  %38 = load i32, ptr %5, align 4
  %39 = sub nsw i32 %38, 1
  %40 = sext i32 %39 to i64
  %41 = getelementptr inbounds i16, ptr %37, i64 %40
  %42 = load i16, ptr %41, align 2
  %43 = load i32, ptr %5, align 4
  %44 = add nsw i32 %43, 2
  %45 = sext i32 %44 to i64
  %46 = getelementptr inbounds [19 x i16], ptr %7, i64 0, i64 %45
  store i16 %42, ptr %46, align 2
  %47 = getelementptr inbounds [19 x i16], ptr %7, i64 0, i64 0
  %48 = load i16, ptr %47, align 16
  %49 = load ptr, ptr %4, align 8
  %50 = getelementptr inbounds i16, ptr %49, i64 -2
  store i16 %48, ptr %50, align 2
  store i32 0, ptr %9, align 4
  br label %51

51:                                               ; preds = %110, %36
  %52 = load i32, ptr %9, align 4
  %53 = load i32, ptr %5, align 4
  %54 = icmp slt i32 %52, %53
  br i1 %54, label %55, label %113

55:                                               ; preds = %51
  %56 = load i32, ptr %9, align 4
  %57 = sext i32 %56 to i64
  %58 = getelementptr inbounds [19 x i16], ptr %7, i64 0, i64 %57
  %59 = load i16, ptr %58, align 2
  %60 = zext i16 %59 to i32
  %61 = sub nsw i32 0, %60
  %62 = load i32, ptr %9, align 4
  %63 = add nsw i32 %62, 1
  %64 = sext i32 %63 to i64
  %65 = getelementptr inbounds [19 x i16], ptr %7, i64 0, i64 %64
  %66 = load i16, ptr %65, align 2
  %67 = zext i16 %66 to i32
  %68 = mul nsw i32 9, %67
  %69 = add nsw i32 %61, %68
  %70 = load i32, ptr %9, align 4
  %71 = add nsw i32 %70, 2
  %72 = sext i32 %71 to i64
  %73 = getelementptr inbounds [19 x i16], ptr %7, i64 0, i64 %72
  %74 = load i16, ptr %73, align 2
  %75 = zext i16 %74 to i32
  %76 = mul nsw i32 9, %75
  %77 = add nsw i32 %69, %76
  %78 = load i32, ptr %9, align 4
  %79 = add nsw i32 %78, 3
  %80 = sext i32 %79 to i64
  %81 = getelementptr inbounds [19 x i16], ptr %7, i64 0, i64 %80
  %82 = load i16, ptr %81, align 2
  %83 = zext i16 %82 to i32
  %84 = sub nsw i32 %77, %83
  store i32 %84, ptr %10, align 4
  %85 = load i32, ptr %10, align 4
  %86 = add nsw i32 %85, 8
  %87 = ashr i32 %86, 4
  store i32 %87, ptr %10, align 4
  %88 = load i32, ptr %10, align 4
  %89 = load i32, ptr %6, align 4
  %90 = call zeroext i16 @clip_pixel_highbd(i32 noundef %88, i32 noundef %89)
  %91 = zext i16 %90 to i32
  store i32 %91, ptr %10, align 4
  %92 = load i32, ptr %10, align 4
  %93 = trunc i32 %92 to i16
  %94 = load ptr, ptr %4, align 8
  %95 = load i32, ptr %9, align 4
  %96 = mul nsw i32 2, %95
  %97 = sub nsw i32 %96, 1
  %98 = sext i32 %97 to i64
  %99 = getelementptr inbounds i16, ptr %94, i64 %98
  store i16 %93, ptr %99, align 2
  %100 = load i32, ptr %9, align 4
  %101 = add nsw i32 %100, 2
  %102 = sext i32 %101 to i64
  %103 = getelementptr inbounds [19 x i16], ptr %7, i64 0, i64 %102
  %104 = load i16, ptr %103, align 2
  %105 = load ptr, ptr %4, align 8
  %106 = load i32, ptr %9, align 4
  %107 = mul nsw i32 2, %106
  %108 = sext i32 %107 to i64
  %109 = getelementptr inbounds i16, ptr %105, i64 %108
  store i16 %104, ptr %109, align 2
  br label %110

110:                                              ; preds = %55
  %111 = load i32, ptr %9, align 4
  %112 = add nsw i32 %111, 1
  store i32 %112, ptr %9, align 4
  br label %51, !llvm.loop !33

113:                                              ; preds = %51
  ret void
}