; Function Attrs: nofree norecurse nosync nounwind memory(argmem: readwrite) uwtable
define hidden void @av1_upsample_intra_edge_high_c(ptr nocapture noundef %0, i32 noundef %1, i32 noundef %2) local_unnamed_addr #0 {
  %4 = alloca [19 x i16], align 16
  %5 = getelementptr inbounds i8, ptr %0, i64 -2
  %6 = load i16, ptr %5, align 2
  store i16 %6, ptr %4, align 16
  %7 = getelementptr inbounds i8, ptr %4, i64 2
  store i16 %6, ptr %7, align 2
  %8 = icmp sgt i32 %1, 0
  br i1 %8, label %.lr.ph.preheader, label %._crit_edge

.lr.ph.preheader:                                 ; preds = %3
  %scevgep = getelementptr inbounds i8, ptr %4, i64 4
  %9 = shl nuw i32 %1, 1
  %10 = zext i32 %9 to i64
  call void @llvm.memcpy.p0.p0.i64(ptr nonnull align 4 %scevgep, ptr nonnull align 2 %0, i64 %10, i1 false)
  br label %._crit_edge

._crit_edge:                                      ; preds = %.lr.ph.preheader, %3
  %11 = sext i32 %1 to i64
  %12 = getelementptr i16, ptr %0, i64 %11
  %13 = getelementptr i8, ptr %12, i64 -2
  %14 = load i16, ptr %13, align 2
  %15 = add nsw i32 %1, 2
  %16 = sext i32 %15 to i64
  %17 = getelementptr inbounds [19 x i16], ptr %4, i64 0, i64 %16
  store i16 %14, ptr %17, align 2
  %18 = load i16, ptr %4, align 16
  %19 = getelementptr inbounds i8, ptr %0, i64 -4
  store i16 %18, ptr %19, align 2
  br i1 %8, label %.lr.ph34, label %._crit_edge35

.lr.ph34:                                         ; preds = %._crit_edge
  %wide.trip.count58 = zext nneg i32 %1 to i64
  %.pre67 = load i16, ptr %7, align 2
  %.phi.trans.insert68 = getelementptr inbounds i8, ptr %4, i64 4
  %.pre69 = load i16, ptr %.phi.trans.insert68, align 4
  switch i32 %2, label %clip_pixel_highbd.exit [
    i32 12, label %clip_pixel_highbd.exit.us
    i32 10, label %clip_pixel_highbd.exit.us41
  ]

clip_pixel_highbd.exit.us:                        ; preds = %.lr.ph34, %clip_pixel_highbd.exit.us
  %20 = phi i16 [ %28, %clip_pixel_highbd.exit.us ], [ %.pre69, %.lr.ph34 ]
  %21 = phi i16 [ %20, %clip_pixel_highbd.exit.us ], [ %.pre67, %.lr.ph34 ]
  %22 = phi i16 [ %21, %clip_pixel_highbd.exit.us ], [ %18, %.lr.ph34 ]
  %indvars.iv50 = phi i64 [ %indvars.iv.next51, %clip_pixel_highbd.exit.us ], [ 0, %.lr.ph34 ]
  %23 = zext i16 %22 to i32
  %indvars.iv.next51 = add nuw nsw i64 %indvars.iv50, 1
  %24 = zext i16 %21 to i32
  %25 = zext i16 %20 to i32
  %26 = add nuw nsw i64 %indvars.iv50, 3
  %27 = getelementptr inbounds [19 x i16], ptr %4, i64 0, i64 %26
  %28 = load i16, ptr %27, align 2
  %29 = zext i16 %28 to i32
  %30 = add nuw nsw i32 %25, %24
  %31 = mul nuw nsw i32 %30, 9
  %32 = add nuw nsw i32 %23, %29
  %reass.sub44 = sub nsw i32 %31, %32
  %33 = add nsw i32 %reass.sub44, 8
  %34 = ashr i32 %33, 4
  %35 = tail call i32 @llvm.umin.i32(i32 %34, i32 4095)
  %36 = icmp slt i32 %34, 0
  %37 = trunc nuw nsw i32 %35 to i16
  %.0.i.us = select i1 %36, i16 0, i16 %37
  %.idx70 = shl i64 %indvars.iv50, 2
  %38 = getelementptr i8, ptr %0, i64 %.idx70
  %39 = getelementptr i8, ptr %38, i64 -2
  store i16 %.0.i.us, ptr %39, align 2
  store i16 %20, ptr %38, align 2
  %exitcond54.not = icmp eq i64 %indvars.iv.next51, %wide.trip.count58
  br i1 %exitcond54.not, label %._crit_edge35, label %clip_pixel_highbd.exit.us, !llvm.loop !31

clip_pixel_highbd.exit.us41:                      ; preds = %.lr.ph34, %clip_pixel_highbd.exit.us41
  %40 = phi i16 [ %48, %clip_pixel_highbd.exit.us41 ], [ %.pre69, %.lr.ph34 ]
  %41 = phi i16 [ %40, %clip_pixel_highbd.exit.us41 ], [ %.pre67, %.lr.ph34 ]
  %42 = phi i16 [ %41, %clip_pixel_highbd.exit.us41 ], [ %18, %.lr.ph34 ]
  %indvars.iv = phi i64 [ %indvars.iv.next, %clip_pixel_highbd.exit.us41 ], [ 0, %.lr.ph34 ]
  %43 = zext i16 %42 to i32
  %indvars.iv.next = add nuw nsw i64 %indvars.iv, 1
  %44 = zext i16 %41 to i32
  %45 = zext i16 %40 to i32
  %46 = add nuw nsw i64 %indvars.iv, 3
  %47 = getelementptr inbounds [19 x i16], ptr %4, i64 0, i64 %46
  %48 = load i16, ptr %47, align 2
  %49 = zext i16 %48 to i32
  %50 = add nuw nsw i32 %45, %44
  %51 = mul nuw nsw i32 %50, 9
  %52 = add nuw nsw i32 %43, %49
  %reass.sub = sub nsw i32 %51, %52
  %53 = add nsw i32 %reass.sub, 8
  %54 = ashr i32 %53, 4
  %55 = tail call i32 @llvm.umin.i32(i32 %54, i32 1023)
  %56 = icmp slt i32 %54, 0
  %57 = trunc nuw nsw i32 %55 to i16
  %.0.i.us43 = select i1 %56, i16 0, i16 %57
  %.idx = shl i64 %indvars.iv, 2
  %58 = getelementptr i8, ptr %0, i64 %.idx
  %59 = getelementptr i8, ptr %58, i64 -2
  store i16 %.0.i.us43, ptr %59, align 2
  store i16 %40, ptr %58, align 2
  %exitcond.not = icmp eq i64 %indvars.iv.next, %wide.trip.count58
  br i1 %exitcond.not, label %._crit_edge35, label %clip_pixel_highbd.exit.us41, !llvm.loop !31

clip_pixel_highbd.exit:                           ; preds = %.lr.ph34, %clip_pixel_highbd.exit
  %60 = phi i16 [ %68, %clip_pixel_highbd.exit ], [ %.pre69, %.lr.ph34 ]
  %61 = phi i16 [ %60, %clip_pixel_highbd.exit ], [ %.pre67, %.lr.ph34 ]
  %62 = phi i16 [ %61, %clip_pixel_highbd.exit ], [ %18, %.lr.ph34 ]
  %indvars.iv55 = phi i64 [ %indvars.iv.next56, %clip_pixel_highbd.exit ], [ 0, %.lr.ph34 ]
  %63 = zext i16 %62 to i32
  %indvars.iv.next56 = add nuw nsw i64 %indvars.iv55, 1
  %64 = zext i16 %61 to i32
  %65 = zext i16 %60 to i32
  %66 = add nuw nsw i64 %indvars.iv55, 3
  %67 = getelementptr inbounds [19 x i16], ptr %4, i64 0, i64 %66
  %68 = load i16, ptr %67, align 2
  %69 = zext i16 %68 to i32
  %70 = add nuw nsw i32 %65, %64
  %71 = mul nuw nsw i32 %70, 9
  %72 = add nuw nsw i32 %63, %69
  %reass.sub45 = sub nsw i32 %71, %72
  %73 = add nsw i32 %reass.sub45, 8
  %74 = ashr i32 %73, 4
  %75 = tail call i32 @llvm.umin.i32(i32 %74, i32 255)
  %76 = icmp slt i32 %74, 0
  %77 = trunc nuw nsw i32 %75 to i16
  %.0.i = select i1 %76, i16 0, i16 %77
  %.idx71 = shl i64 %indvars.iv55, 2
  %78 = getelementptr i8, ptr %0, i64 %.idx71
  %79 = getelementptr i8, ptr %78, i64 -2
  store i16 %.0.i, ptr %79, align 2
  store i16 %60, ptr %78, align 2
  %exitcond59.not = icmp eq i64 %indvars.iv.next56, %wide.trip.count58
  br i1 %exitcond59.not, label %._crit_edge35, label %clip_pixel_highbd.exit, !llvm.loop !31

._crit_edge35:                                    ; preds = %clip_pixel_highbd.exit.us41, %clip_pixel_highbd.exit.us, %clip_pixel_highbd.exit, %._crit_edge
  ret void
}